(dp0
S'METTS MARK'
p1
(dp2
S'to_messages'
p3
F807.0
sS'deferral_payments'
p4
F0.0
sS'expenses'
p5
F0.41221263928170204
sS'poi'
p6
I00
sS'long_term_incentive'
p7
F0.0
sS'from_poi_to_this_person'
p8
F38.0
sS'deferred_income'
p9
F1.0
sS'restricted_stock_deferred'
p10
F0.9999999999999999
sS'shared_receipt_with_poi'
p11
F702.0
sS'loan_advances'
p12
F0.0
sS'from_messages'
p13
F29.0
sS'bonus_to_salary'
p14
F1.6402943781644013
sS'to_poi_ratio'
p15
F0.04708798017348203
sS'director_fees'
p16
F0.0
sS'bonus'
p17
F0.0857142857142857
sS'total_stock_value'
p18
F0.011913277759404088
sS'from_this_person_to_poi'
p19
F1.0
sS'from_poi_ratio'
p20
F0.034482758620689655
sS'restricted_stock'
p21
F0.03963379812642099
sS'salary'
p22
F0.329165684296536
sS'total_payments'
p23
F0.010253274646850635
sS'exercised_stock_options'
p24
F0.0
sS'other'
p25
F0.00016795806145122134
ssS'ELLIOTT STEVEN'
p26
(dp27
g3
F0.0
sg4
F0.0
sg5
F0.34337720697840124
sg6
I00
sg7
F0.0
sg8
F0.0
sg9
F0.8856492977657142
sg10
F0.9999999999999999
sg11
F0.0
sg12
F0.0
sg13
F0.0
sg14
F2.047490069673162
sg15
F0.0
sg16
F0.0
sg17
F0.049999999999999996
sg18
F0.13599520245111402
sg19
F0.0
sg20
F0.0
sg21
F0.12115079746267603
sg22
F0.15382656412822224
sg23
F0.002044471062239377
sg24
F0.14237479119832827
sg25
F0.0012510945025685518
ssS'CORDES WILLIAM R'
p28
(dp29
g3
F764.0
sg4
F0.0
sg5
F0.0
sg6
I00
sg7
F0.0
sg8
F10.0
sg9
F1.0
sg10
F0.9999999999999999
sg11
F58.0
sg12
F0.0
sg13
F12.0
sg14
F0.0
sg15
F0.013089005235602094
sg16
F0.0
sg17
F0.0
sg18
F0.021139958279031854
sg19
F0.0
sg20
F0.0
sg21
F0.02617145430598954
sg22
F0.0
sg23
F0.0
sg24
F0.018977603138476615
sg25
F0.0
ssS'HANNON KEVIN P'
p30
(dp31
g3
F1045.0
sg4
F0.0
sg5
F0.1487959154233858
sg6
I01
sg7
F0.31426134316366705
sg8
F32.0
sg9
F0.11054004895579417
sg10
F0.9999999999999999
sg11
F1035.0
sg12
F0.0
sg13
F32.0
sg14
F6.165405498719651
sg15
F0.03062200956937799
sg16
F0.0
sg17
F0.21428571428571427
sg18
F0.1301375452916202
sg19
F21.0
sg20
F0.65625
sg21
F0.05778903152985016
sg22
F0.2189347568251477
sg23
F0.002787587649967589
sg24
F0.1612303216360921
sg25
F0.0010955885042938864
ssS'MORDAUNT KRISTINA M'
p32
(dp33
g3
F0.0
sg4
F0.0
sg5
F0.15307545363542183
sg6
I00
sg7
F0.0
sg8
F0.0
sg9
F1.0
sg10
F0.9999999999999999
sg11
F0.0
sg12
F0.0
sg13
F0.0
sg14
F1.2168046335920448
sg15
F0.0
sg16
F0.0
sg17
F0.04642857142857142
sg18
F0.00424576804785364
sg19
F0.0
sg20
F0.0
sg21
F0.014125072637327395
sg22
F0.24035192547545214
sg23
F0.006069170107360102
sg24
F0.0
sg25
F0.0001362004739699272
ssS'MEYER ROCKFORD G'
p34
(dp35
g3
F232.0
sg4
F0.5901371708824787
sg5
F0.0
sg6
I00
sg7
F0.0
sg8
F0.0
sg9
F1.0
sg10
F0.9999999999999999
sg11
F22.0
sg12
F0.0
sg13
F28.0
sg14
F0.0
sg15
F0.0
sg16
F0.0
sg17
F0.0
sg18
F0.019463886821763955
sg19
F0.0
sg20
F0.0
sg21
F0.03132323431172601
sg22
F0.0
sg23
F0.017846955333330958
sg24
F0.014367167899369006
sg25
F0.0
ssS'MCMAHON JEFFREY'
p36
(dp37
g3
F2355.0
sg4
F0.0
sg5
F0.599345173826187
sg6
I00
sg7
F0.13504439081329195
sg8
F58.0
sg9
F1.0
sg10
F0.9999999999999999
sg11
F2228.0
sg12
F0.0
sg13
F48.0
sg14
F7.018528916339135
sg15
F0.024628450106157114
sg16
F0.0
sg17
F0.3714285714285714
sg18
F0.03385975074199638
sg19
F26.0
sg20
F0.5416666666666666
sg21
F0.03785480175920189
sg22
F0.3333591299230242
sg23
F0.03958844336430838
sg24
F0.03214282220671575
sg25
F0.028702777842933923
ssS'HORTON STANLEY C'
p38
(dp39
g3
F2350.0
sg4
F1.0
sg5
F0.0
sg6
I00
sg7
F0.0
sg8
F44.0
sg9
F1.0
sg10
F0.9999999999999999
sg11
F1074.0
sg12
F0.0
sg13
F1073.0
sg14
F0.0
sg15
F0.01872340425531915
sg16
F0.0
sg17
F0.0
sg18
F0.14776290927495575
sg19
F15.0
sg20
F0.013979496738117428
sg21
F0.13860733056788738
sg22
F0.0
sg23
F0.030242045771566962
sg24
F0.15169764609595607
sg25
F0.0
ssS'PIPER GREGORY F'
p40
(dp41
g3
F1238.0
sg4
F0.36081944914523634
sg5
F0.18821662594038374
sg6
I00
sg7
F0.0
sg8
F61.0
sg9
F0.9904882053518077
sg10
F0.8427507880621541
sg11
F742.0
sg12
F0.0
sg13
F222.0
sg14
F2.0295193590777862
sg15
F0.049273021001615507
sg16
F0.0
sg17
F0.05714285714285714
sg18
F0.017924834083953196
sg19
F48.0
sg20
F0.21621621621621623
sg21
F0.027744376763263075
sg22
F0.1773584532124853
sg23
F0.016778992596093736
sg24
F0.025628279921407655
sg25
F7.509848954543116e-05
ssS'HUMPHREY GENE E'
p42
(dp43
g3
F128.0
sg4
F0.9465640226574623
sg5
F0.021830453351284956
sg6
I00
sg7
F0.0
sg8
F10.0
sg9
F1.0
sg10
F0.9999999999999999
sg11
F119.0
sg12
F0.0
sg13
F17.0
sg14
F0.0
sg15
F0.078125
sg16
F0.0
sg17
F0.0
sg18
F0.04648267917635969
sg19
F17.0
sg20
F1.0
sg21
F0.0
sg22
F0.1176360485143864
sg23
F0.029936560417806166
sg24
F0.0664592546770177
sg25
F0.0
ssS'UMANOFF ADAM S'
p44
(dp45
g3
F111.0
sg4
F0.0
sg5
F0.23221412553603513
sg6
I00
sg7
F0.0
sg8
F12.0
sg9
F1.0
sg10
F0.9999999999999999
sg11
F41.0
sg12
F0.0
sg13
F18.0
sg14
F2.7331256562100426
sg15
F0.10810810810810811
sg16
F0.0
sg17
F0.11267857142857142
sg18
F0.0
sg19
F0.0
sg20
F0.0
sg21
F0.0
sg22
F0.2596957682194414
sg23
F0.010916022205645004
sg24
F0.0
sg25
F0.0
ssS'BLACHMAN JEREMY M'
p46
(dp47
g3
F2475.0
sg4
F0.0
sg5
F0.3681014849429322
sg6
I00
sg7
F0.16165963842894499
sg8
F25.0
sg9
F1.0
sg10
F0.9999999999999999
sg11
F2326.0
sg12
F0.0
sg13
F14.0
sg14
F3.419890080709406
sg15
F0.010101010101010102
sg16
F0.0
sg17
F0.12142857142857141
sg18
F0.01943295630685009
sg19
F2.0
sg20
F0.14285714285714285
sg21
F0.012806186065095239
sg22
F0.22366183190582203
sg23
F0.01945576503807805
sg24
F0.022280902647414214
sg25
F2.6255513054443797e-05
ssS'SUNDE MARTIN'
p48
(dp49
g3
F2647.0
sg4
F0.0
sg5
F0.0
sg6
I00
sg7
F0.09259685383196053
sg8
F37.0
sg9
F1.0
sg10
F0.9999999999999999
sg11
F2565.0
sg12
F0.0
sg13
F38.0
sg14
F2.7185944090164127
sg15
F0.013978088401964487
sg16
F0.0
sg17
F0.09999999999999999
sg18
F0.014231702095850876
sg19
F13.0
sg20
F0.34210526315789475
sg21
F0.04734686953949865
sg22
F0.2317067683652221
sg23
F0.014919487141114698
sg24
F0.0
sg25
F0.010726342358955528
ssS'GIBBS DANA R'
p50
(dp51
g3
F169.0
sg4
F0.1611215060698754
sg5
F0.0
sg6
I00
sg7
F0.08977124184276779
sg8
F0.0
sg9
F1.0
sg10
F0.9999999999999999
sg11
F23.0
sg12
F0.0
sg13
F12.0
sg14
F0.0
sg15
F0.0
sg16
F0.0
sg17
F0.0
sg18
F0.04516944566856522
sg19
F0.0
sg20
F0.0
sg21
F0.0
sg22
F0.0
sg23
F0.009332985051447524
sg24
F0.06458164087137258
sg25
F0.0
ssS'LOWRY CHARLES P'
p52
(dp53
g3
F0.0
sg4
F0.0
sg5
F0.0
sg6
I00
sg7
F0.0
sg8
F0.0
sg9
F1.0
sg10
F0.9409919024453923
sg11
F0.0
sg12
F0.0
sg13
F0.0
sg14
F0.0
sg15
F0.0
sg16
F0.0
sg17
F0.0
sg18
F0.0075789942748614655
sg19
F0.0
sg20
F0.0
sg21
F0.010411135740925125
sg22
F0.0
sg23
F0.0
sg24
F0.010836172088911081
sg25
F0.0
ssS'COLWELL WESLEY'
p54
(dp55
g3
F1758.0
sg4
F0.008815847451674085
sg5
F0.07218824722529431
sg6
I01
sg7
F0.0
sg8
F240.0
sg9
F0.9588909440912046
sg10
F0.9999999999999999
sg11
F1132.0
sg12
F0.0
sg13
F40.0
sg14
F4.158839960906905
sg15
F0.13651877133105803
sg16
F0.0
sg17
F0.1714285714285714
sg18
F0.014217896375566742
sg19
F11.0
sg20
F0.275
sg21
F0.04730093985148317
sg22
F0.2596534738107622
sg23
F0.014391145026719008
sg24
F0.0
sg25
F0.009820720213820265
ssS'MULLER MARK S'
p56
(dp57
g3
F136.0
sg4
F0.26914485321821535
sg5
F0.0
sg6
I00
sg7
F0.33535460759966995
sg8
F12.0
sg9
F0.7948285377238694
sg10
F0.9999999999999999
sg11
F114.0
sg12
F0.0
sg13
F16.0
sg14
F4.3710809285765375
sg15
F0.08823529411764706
sg16
F0.0
sg17
F0.15714285714285714
sg18
F0.02885045305772066
sg19
F0.0
sg20
F0.0
sg21
F0.024423213216586116
sg22
F0.2264586621648618
sg23
F0.03092001159175743
sg24
F0.030753120729056713
sg25
F9.141165758293484e-05
ssS'JACKSON CHARLENE R'
p58
(dp59
g3
F258.0
sg4
F0.0
sg5
F0.04450457460341052
sg6
I00
sg7
F0.0
sg8
F25.0
sg9
F1.0
sg10
F0.9999999999999999
sg11
F117.0
sg12
F0.0
sg13
F56.0
sg14
F0.8663769502145149
sg15
F0.09689922480620156
sg16
F0.0
sg17
F0.03571428571428571
sg18
F0.014777720369330304
sg19
F19.0
sg20
F0.3392857142857143
sg21
F0.03662669067655785
sg22
F0.25966787190733387
sg23
F0.005322277923054558
sg24
F0.005387822611974991
sg25
F0.0002350447584101862
ssS'WESTFAHL RICHARD K'
p60
(dp61
g3
F0.0
sg4
F0.0
sg5
F0.22674121252125565
sg6
I00
sg7
F0.04978996912602514
sg8
F0.0
sg9
F0.9969181477154628
sg10
F0.9999999999999999
sg11
F0.0
sg12
F0.0
sg13
F0.0
sg14
F0.0
sg15
F0.0
sg16
F0.0
sg17
F0.0
sg18
F0.007838106060430203
sg19
F0.0
sg20
F0.0
sg21
F0.02607627552772737
sg22
F0.05736201674138679
sg23
F0.00735937160476943
sg24
F0.0
sg25
F0.038720124821797944
ssS'WALTERS GARETH W'
p62
(dp63
g3
F0.0
sg4
F0.017122412879247473
sg5
F0.14768559600984427
sg6
I00
sg7
F0.0
sg8
F0.0
sg9
F1.0
sg10
F0.9999999999999999
sg11
F0.0
sg12
F0.0
sg13
F0.0
sg14
F0.0
sg15
F0.0
sg16
F0.0
sg17
F0.0
sg18
F0.02097999111302572
sg19
F0.0
sg20
F0.0
sg21
F0.0
sg22
F0.0
sg23
F0.0008440534445641466
sg24
F0.02999643301996391
sg25
F0.0
ssS'WALLS JR ROBERT H'
p64
(dp65
g3
F671.0
sg4
F0.0
sg5
F0.22265838444153996
sg6
I00
sg7
F0.10509337016080665
sg8
F17.0
sg9
F1.0
sg10
F0.9999999999999999
sg11
F215.0
sg12
F0.0
sg13
F146.0
sg14
F2.380345626184922
sg15
F0.02533532041728763
sg16
F0.0
sg17
F0.12142857142857141
sg18
F0.12011785035242664
sg19
F0.0
sg20
F0.0
sg21
F0.10516767249070465
sg22
F0.3213394189288176
sg23
F0.01736948238202832
sg24
F0.1265428964576616
sg25
F1.9305524304738086e-07
ssS'KITCHEN LOUISE'
p66
(dp67
g3
F8305.0
sg4
F0.0
sg5
F0.025240095644837673
sg6
I00
sg7
F0.0
sg8
F251.0
sg9
F1.0
sg10
F0.9999999999999999
sg11
F3669.0
sg12
F0.0
sg13
F1728.0
sg14
F11.420487617981005
sg15
F0.030222757375075255
sg16
F0.0
sg17
F0.44285714285714284
sg18
F0.011141155182038197
sg19
F194.0
sg20
F0.11226851851851852
sg21
F0.031575034680979025
sg22
F0.2442655080998292
sg23
F0.03351823038116733
sg24
F0.002359412308887661
sg25
F0.009066356851612624
ssS'CHAN RONNIE'
p68
(dp69
g3
F0.0
sg4
F0.0
sg5
F0.0
sg6
I00
sg7
F0.0
sg8
F0.0
sg9
F0.9718113244374336
sg10
F0.9875369074175749
sg11
F0.0
sg12
F0.0
sg13
F0.0
sg14
F0.0
sg15
F0.0
sg16
F0.7900571044675848
sg17
F0.0
sg18
F0.0
sg19
F0.0
sg20
F0.0
sg21
F0.002198934620918168
sg22
F0.0
sg23
F0.0
sg24
F0.0
sg25
F0.0
ssS'BELFER ROBERT'
p70
(dp71
g3
F0.0
sg4
F0.0
sg5
F0.01435983965938548
sg6
I00
sg7
F0.0
sg8
F0.0
sg9
F0.9707509389661984
sg10
F0.9830703899803799
sg11
F0.0
sg12
F0.0
sg13
F0.0
sg14
F0.0
sg15
F0.0
sg16
F0.819777020650383
sg17
F0.0
sg18
F0.0
sg19
F0.0
sg20
F0.0
sg21
F0.0029869878077678617
sg22
F0.0
sg23
F3.172080500392657e-05
sg24
F0.0
sg25
F0.0
ssS'SHANKMAN JEFFREY A'
p72
(dp73
g3
F3221.0
sg4
F0.0
sg5
F0.7823773949458611
sg6
I00
sg7
F0.10775028889691327
sg8
F94.0
sg9
F1.0
sg10
F0.9999999999999999
sg11
F1730.0
sg12
F0.0
sg13
F2681.0
sg14
F6.576567689322943
sg15
F0.029183483390251473
sg16
F0.0
sg17
F0.2857142857142857
sg18
F0.0421916454704063
sg19
F83.0
sg20
F0.030958597538232
sg21
F0.04268730946461835
sg22
F0.2736628217749613
sg23
F0.029342488160438867
sg24
F0.041978627000327
sg25
F0.0001149643972347153
ssS'WODRASKA JOHN'
p74
(dp75
g3
F0.0
sg4
F0.0
sg5
F0.0
sg6
I00
sg7
F0.0
sg8
F0.0
sg9
F1.0
sg10
F0.9999999999999999
sg11
F0.0
sg12
F0.0
sg13
F0.0
sg14
F0.0
sg15
F0.0
sg16
F0.0
sg17
F0.0
sg18
F0.0
sg19
F0.0
sg20
F0.0
sg21
F0.0
sg22
F0.0
sg23
F0.0018306622146299577
sg24
F0.0
sg25
F0.018299996071325802
ssS'BERGSIEKER RICHARD P'
p76
(dp77
g3
F383.0
sg4
F0.0
sg5
F0.258673824001259
sg6
I00
sg7
F0.0350310586045803
sg8
F4.0
sg9
F0.8613700088974217
sg10
F0.9999999999999999
sg11
F233.0
sg12
F0.0
sg13
F59.0
sg14
F1.3303391832781686
sg15
F0.010443864229765013
sg16
F0.0
sg17
F0.03571428571428571
sg18
F0.013423904559874656
sg19
F0.0
sg20
F0.0
sg21
F0.04465944084737158
sg22
F0.16910744399590374
sg23
F0.005975774787421601
sg24
F0.0
sg25
F0.0412477971190173
ssS'URQUHART JOHN A'
p78
(dp79
g3
F0.0
sg4
F0.0
sg5
F0.999532267018705
sg6
I00
sg7
F0.0
sg8
F0.0
sg9
F0.9895371114939964
sg10
F0.9999999999999999
sg11
F0.0
sg12
F0.0
sg13
F0.0
sg14
F0.0
sg15
F0.0
sg16
F0.2932482364796775
sg17
F0.0
sg18
F0.0
sg19
F0.0
sg20
F0.0
sg21
F0.0
sg22
F0.0
sg23
F0.00220796115341791
sg24
F0.0
sg25
F0.0
ssS'BIBI PHILIPPE A'
p80
(dp81
g3
F1607.0
sg4
F0.0
sg5
F0.1685543553808964
sg6
I00
sg7
F0.07185419150260212
sg8
F23.0
sg9
F1.0
sg10
F0.9999999999999999
sg11
F1336.0
sg12
F0.0
sg13
F40.0
sg14
F4.681100058513751
sg15
F0.01431238332296204
sg16
F0.0
sg17
F0.14285714285714285
sg18
F0.03754455450060576
sg19
F8.0
sg20
F0.2
sg21
F0.025612372130190478
sg22
F0.1922370862571968
sg23
F0.01977208471245206
sg24
F0.04267257522217057
sg25
F0.04109065015117673
ssS'PIRO JIM'
p82
(dp83
g3
F58.0
sg4
F0.0
sg5
F0.0
sg6
I00
sg7
F0.0
sg8
F0.0
sg9
F1.0
sg10
F0.9999999999999999
sg11
F3.0
sg12
F0.0
sg13
F16.0
sg14
F0.0
sg15
F0.0
sg16
F0.0
sg17
F0.0
sg18
F0.0009632238824788671
sg19
F1.0
sg20
F0.0625
sg21
F0.0032045102682659588
sg22
F0.0
sg23
F0.0
sg24
F0.0
sg25
F0.0
ssS'RIEKER PAULA H'
p84
(dp85
g3
F1328.0
sg4
F0.0685464867522814
sg5
F0.1454387291651185
sg6
I01
sg7
F0.0
sg8
F35.0
sg9
F0.9714643306987301
sg10
F0.9999999999999999
sg11
F1258.0
sg12
F0.0
sg13
F82.0
sg14
F2.8089774920646384
sg15
F0.02635542168674699
sg16
F0.0
sg17
F0.09999999999999999
sg18
F0.03907318167973588
sg19
F48.0
sg20
F0.5853658536585366
sg21
F0.019215206601627156
sg22
F0.22425125398422327
sg23
F0.010613192322622738
sg24
F0.04760742164755116
sg25
F0.00018822886197119635
ssS'WHALEY DAVID A'
p86
(dp87
g3
F0.0
sg4
F0.0
sg5
F0.0
sg6
I00
sg7
F0.0
sg8
F0.0
sg9
F1.0
sg10
F0.9999999999999999
sg11
F0.0
sg12
F0.0
sg13
F0.0
sg14
F0.0
sg15
F0.0
sg16
F0.0
sg17
F0.0
sg18
F0.00201013730827306
sg19
F0.0
sg20
F0.0
sg21
F0.0
sg22
F0.0
sg23
F0.0
sg24
F0.002874021671587228
sg25
F0.0
ssS'BECK SALLY W'
p88
(dp89
g3
F7315.0
sg4
F0.0
sg5
F0.16249131196915587
sg6
I00
sg7
F0.0
sg8
F144.0
sg9
F1.0
sg10
F0.9999999999999999
sg11
F2639.0
sg12
F0.0
sg13
F4343.0
sg14
F3.025980201443825
sg15
F0.01968557758031442
sg16
F0.0
sg17
F0.09999999999999999
sg18
F0.0025662146168857645
sg19
F386.0
sg20
F0.08887865530739121
sg21
F0.0085374347957626
sg22
F0.2081694799947447
sg23
F0.009357569882357721
sg24
F0.0
sg25
F5.463463378240878e-05
ssS'HAUG DAVID L'
p90
(dp91
g3
F573.0
sg4
F0.0
sg5
F0.0020763847300481284
sg6
I00
sg7
F0.0
sg8
F4.0
sg9
F1.0
sg10
F0.9999999999999999
sg11
F471.0
sg12
F0.0
sg13
F19.0
sg14
F0.0
sg15
F0.006980802792321117
sg16
F0.0
sg17
F0.0
sg18
F0.04514957194733024
sg19
F7.0
sg20
F0.3684210526315789
sg21
F0.15020627036436332
sg22
F0.0
sg23
F4.5867221847382405e-06
sg24
F0.0
sg25
F0.0
ssS'ECHOLS JOHN B'
p92
(dp93
g3
F0.0
sg4
F0.0
sg5
F0.09411486997460254
sg6
I00
sg7
F0.4343217695533555
sg8
F0.0
sg9
F1.0
sg10
F0.9999999999999999
sg11
F0.0
sg12
F0.0
sg13
F0.0
sg14
F1.0974237976350518
sg15
F0.0
sg16
F0.0
sg17
F0.02857142857142857
sg18
F0.02054447968907726
sg19
F0.0
sg20
F0.0
sg21
F0.027605436069871113
sg22
F0.16399881935608113
sg23
F0.025997773093269894
sg24
F0.017509935838611795
sg25
F0.005190772847436453
ssS'MENDELSOHN JOHN'
p94
(dp95
g3
F0.0
sg4
F0.0
sg5
F0.000646957768520259
sg6
I00
sg7
F0.0
sg8
F0.0
sg9
F0.9703942430999325
sg10
F0.9999999999999999
sg11
F0.0
sg12
F0.0
sg13
F0.0
sg14
F0.0
sg15
F0.0
sg16
F0.8297743013900218
sg17
F0.0
sg18
F0.0
sg19
F0.0
sg20
F0.0
sg21
F0.0
sg22
F0.0
sg23
F1.4291260701921256e-06
sg24
F0.0
sg25
F0.0
ssS'HICKERSON GARY J'
p96
(dp97
g3
F1320.0
sg4
F0.0
sg5
F0.43210221932742626
sg6
I00
sg7
F0.013453286933619206
sg8
F40.0
sg9
F1.0
sg10
F0.9999999999999999
sg11
F900.0
sg12
F0.0
sg13
F27.0
sg14
F8.02689481934765
sg15
F0.030303030303030304
sg16
F0.0
sg17
F0.24285714285714283
sg18
F0.008981781702729123
sg19
F1.0
sg20
F0.037037037037037035
sg21
F0.029881123399523115
sg22
F0.19058400479456616
sg23
F0.020102357678524908
sg24
F0.0
sg25
F0.00018687747526986468
ssS'CLINE KENNETH W'
p98
(dp99
g3
F0.0
sg4
F0.0
sg5
F0.0
sg6
I00
sg7
F0.0
sg8
F0.0
sg9
F1.0
sg10
F0.818556416035385
sg11
F0.0
sg12
F0.0
sg13
F0.0
sg14
F0.0
sg15
F0.0
sg16
F0.0
sg17
F0.0
sg18
F0.0038590449805435047
sg19
F0.0
sg20
F0.0
sg21
F0.044851627462268215
sg22
F0.0
sg23
F0.0
sg24
F0.0
sg25
F0.0
ssS'LEWIS RICHARD'
p100
(dp101
g3
F952.0
sg4
F0.0
sg5
F0.0
sg6
I00
sg7
F0.0
sg8
F10.0
sg9
F1.0
sg10
F0.9999999999999999
sg11
F739.0
sg12
F0.0
sg13
F26.0
sg14
F0.0
sg15
F0.01050420168067227
sg16
F0.0
sg17
F0.0
sg18
F0.017317769277417967
sg19
F0.0
sg20
F0.0
sg21
F0.0
sg22
F0.0
sg23
F0.0
sg24
F0.024760320601982324
sg25
F0.0
ssS'HAYES ROBERT E'
p102
(dp103
g3
F504.0
sg4
F0.0025419399334580726
sg5
F0.0
sg6
I00
sg7
F0.0
sg8
F16.0
sg9
F1.0
sg10
F0.9999999999999999
sg11
F50.0
sg12
F0.0
sg13
F12.0
sg14
F0.0
sg15
F0.031746031746031744
sg16
F0.0
sg17
F0.0
sg18
F0.0030832368052846506
sg19
F0.0
sg20
F0.0
sg21
F0.010257494837652101
sg22
F0.0
sg23
F7.687346381621292e-05
sg24
F0.0
sg25
F0.0
ssS'KOPPER MICHAEL J'
p104
(dp105
g3
F0.0
sg4
F0.0
sg5
F0.5164034393673802
sg6
I01
sg7
F0.11712734047312628
sg8
F0.0
sg9
F1.0
sg10
F0.9999999999999999
sg11
F0.0
sg12
F0.0
sg13
F0.0
sg14
F3.5665723011078665
sg15
F0.0
sg16
F0.0
sg17
F0.11428571428571428
sg18
F0.020057634606078206
sg19
F0.0
sg20
F0.0
sg21
F0.06672892691042098
sg22
F0.20184781571876198
sg23
F0.025614303806111315
sg24
F0.0
sg25
F0.08759900958799212
ssS'LEFF DANIEL P'
p106
(dp107
g3
F2822.0
sg4
F0.0
sg5
F0.0
sg6
I00
sg7
F0.2696369246986746
sg8
F67.0
sg9
F1.0
sg10
F0.9999999999999999
sg11
F2672.0
sg12
F0.0
sg13
F63.0
sg14
F3.653021414011529
sg15
F0.02374202693125443
sg16
F0.0
sg17
F0.14285714285714285
sg18
F0.0073412223047171704
sg19
F14.0
sg20
F0.2222222222222222
sg21
F0.024423213216586116
sg22
F0.24633883400614437
sg23
F0.025726470890106934
sg24
F0.0
sg25
F0.0002975946571575376
ssS'CHRISTODOULOU DIOMEDES'
p108
(dp109
g3
F0.0
sg4
F0.0
sg5
F0.0
sg6
I00
sg7
F0.0
sg8
F0.0
sg9
F1.0
sg10
F0.9999999999999999
sg11
F0.0
sg12
F0.0
sg13
F0.0
sg14
F0.0
sg15
F0.0
sg16
F0.0
sg17
F0.0
sg18
F0.123760442815831
sg19
F0.0
sg20
F0.0
sg21
F0.06440520986277048
sg22
F0.0
sg23
F0.0
sg24
F0.1492691766809175
sg25
F0.0
ssS'BERBERIAN DAVID'
p110
(dp111
g3
F0.0
sg4
F0.0
sg5
F0.05198393096785757
sg6
I00
sg7
F0.0
sg8
F0.0
sg9
F1.0
sg10
F0.9999999999999999
sg11
F0.0
sg12
F0.0
sg13
F0.0
sg14
F0.0
sg15
F0.0
sg16
F0.0
sg17
F0.0
sg18
F0.050776054560532365
sg19
F0.0
sg20
F0.0
sg21
F0.05888348586551109
sg22
F0.19489803447984175
sg23
F0.002206203714601863
sg24
F0.04729177361007726
sg25
F0.0
ssS'DETMERING TIMOTHY J'
p112
(dp113
g3
F0.0
sg4
F0.2794847151532955
sg5
F0.22842417698666306
sg6
I00
sg7
F0.08078171831569504
sg8
F0.0
sg9
F0.7787797919521422
sg10
F0.8790289077708111
sg11
F0.0
sg12
F0.0
sg13
F0.0
sg14
F2.019002375296912
sg15
F0.0
sg16
F0.0
sg17
F0.06071428571428571
sg18
F0.04129223741000778
sg19
F0.0
sg20
F0.0
sg21
F0.021343620860857837
sg22
F0.18942495802054968
sg23
F0.01163176330412325
sg24
F0.05903814863604646
sg25
F0.00010666302178367792
ssS'WAKEHAM JOHN'
p114
(dp115
g3
F0.0
sg4
F0.0
sg5
F0.4536266791395462
sg6
I00
sg7
F0.0
sg8
F0.0
sg9
F1.0
sg10
F0.9999999999999999
sg11
F0.0
sg12
F0.0
sg13
F0.0
sg14
F0.0
sg15
F0.0
sg16
F0.8741462322248348
sg17
F0.0
sg18
F0.0
sg19
F0.0
sg20
F0.0
sg21
F0.0
sg22
F0.0
sg23
F0.0020574683844723405
sg24
F0.0
sg25
F0.0
ssS'POWERS WILLIAM'
p116
(dp117
g3
F653.0
sg4
F0.0
sg5
F0.0
sg6
I00
sg7
F0.0
sg8
F0.0
sg9
F0.9950062578722778
sg10
F0.9999999999999999
sg11
F12.0
sg12
F0.0
sg13
F26.0
sg14
F0.0
sg15
F0.0
sg16
F0.13996193035494345
sg17
F0.0
sg18
F0.0
sg19
F0.0
sg20
F0.0
sg21
F0.0
sg22
F0.0
sg23
F0.0
sg24
F0.0
sg25
F0.0
ssS'GOLD JOSEPH'
p118
(dp119
g3
F0.0
sg4
F0.0
sg5
F0.0
sg6
I00
sg7
F0.05923795738124326
sg8
F0.0
sg9
F1.0
sg10
F0.9999999999999999
sg11
F0.0
sg12
F0.0
sg13
F0.0
sg14
F2.748460861917326
sg15
F0.0
sg16
F0.0
sg17
F0.10714285714285714
sg18
F0.0178702831626535
sg19
F0.0
sg20
F0.0
sg21
F0.029881123399523115
sg22
F0.24555953702920474
sg23
F0.02073172355607161
sg24
F0.01270845813299397
sg25
F0.07908392198290129
ssS'BANNANTINE JAMES M'
p120
(dp121
g3
F566.0
sg4
F0.0
sg5
F0.24611060355039935
sg6
I00
sg7
F0.0
sg8
F39.0
sg9
F0.9985435394388632
sg10
F0.7849014586348958
sg11
F465.0
sg12
F0.0
sg13
F29.0
sg14
F0.0
sg15
F0.06890459363957598
sg16
F0.0
sg17
F0.0
sg18
F0.10677008087830771
sg19
F0.0
sg20
F0.0
sg21
F0.1190616740869984
sg22
F0.0004292432540418157
sg23
F0.008847033906296046
sg24
F0.11779759420414072
sg25
F0.08345034894252543
ssS'DUNCAN JOHN H'
p122
(dp123
g3
F0.0
sg4
F0.0
sg5
F0.0
sg6
I00
sg7
F0.0
sg8
F0.0
sg9
F0.9928660826746826
sg10
F0.9999999999999999
sg11
F0.0
sg12
F0.0
sg13
F0.0
sg14
F0.0
sg15
F0.0
sg16
F0.8197130380536494
sg17
F0.0
sg18
F0.007569729374080815
sg19
F0.0
sg20
F0.0
sg21
F0.0
sg22
F0.0
sg23
F0.0007482826853468121
sg24
F0.0108229254686334
sg25
F0.0
ssS'SHAPIRO RICHARD S'
p124
(dp125
g3
F15149.0
sg4
F0.0
sg5
F0.6022258844306116
sg6
I00
sg7
F0.0
sg8
F74.0
sg9
F1.0
sg10
F0.9999999999999999
sg11
F4527.0
sg12
F0.0
sg13
F1215.0
sg14
F2.4156743819590005
sg15
F0.0048848108786058485
sg16
F0.0
sg17
F0.09285714285714285
sg18
F0.02009772820967623
sg19
F65.0
sg20
F0.053497942386831275
sg21
F0.025685669950887748
sg22
F0.24213638956929892
sg23
F0.010211955522159068
sg24
F0.017696232812582972
sg25
F6.805197317420175e-05
ssS'SHERRIFF JOHN R'
p126
(dp127
g3
F3187.0
sg4
F0.0
sg5
F0.0
sg6
I00
sg7
F0.10775028889691327
sg8
F28.0
sg9
F1.0
sg10
F0.9999999999999999
sg11
F2103.0
sg12
F0.0
sg13
F92.0
sg14
F3.4982974952189934
sg15
F0.008785691873235017
sg16
F0.0
sg17
F0.21428571428571427
sg18
F0.06371364346030972
sg19
F23.0
sg20
F0.25
sg21
F0.08762029615300249
sg22
F0.385850990499056
sg23
F0.04186362172431148
sg24
F0.05343942818387031
sg25
F0.1787871091994781
ssS'SHELBY REX'
p128
(dp129
g3
F225.0
sg4
F0.0
sg5
F0.10003365928930816
sg6
I01
sg7
F0.0
sg8
F13.0
sg9
F0.9988109186602161
sg10
F0.9999999999999999
sg11
F91.0
sg12
F0.0
sg13
F39.0
sg14
F0.9440909348388437
sg15
F0.057777777777777775
sg16
F0.0
sg17
F0.02857142857142857
sg18
F0.050776054560532365
sg19
F14.0
sg20
F0.358974358974359
sg21
F0.05888348586551109
sg22
F0.19063439813256686
sg23
F0.019350029021398294
sg24
F0.04729177361007726
sg25
F0.15186922360613872
ssS'LEMAISTRE CHARLES'
p130
(dp131
g3
F0.0
sg4
F0.0
sg5
F0.0
sg6
I00
sg7
F0.0
sg8
F0.0
sg9
F0.9928660826746826
sg10
F0.9999999999999999
sg11
F0.0
sg12
F0.0
sg13
F0.0
sg14
F0.0
sg15
F0.0
sg16
F0.8996912839707599
sg17
F0.0
sg18
F0.008407194954974415
sg19
F0.0
sg20
F0.0
sg21
F0.0
sg22
F0.0
sg23
F0.0008448452576570909
sg24
F0.012020303487931193
sg25
F0.0
ssS'DEFFNER JOSEPH M'
p132
(dp133
g3
F714.0
sg4
F0.0
sg5
F0.18196124373259664
sg6
I00
sg7
F0.06517409415804382
sg8
F115.0
sg9
F1.0
sg10
F0.9999999999999999
sg11
F552.0
sg12
F0.0
sg13
F74.0
sg14
F2.910911551952494
sg15
F0.16106442577030813
sg16
F0.0
sg17
F0.0857142857142857
sg18
F0.0032419211388749983
sg19
F4.0
sg20
F0.05405405405405406
sg21
F0.009608179115486339
sg22
F0.1854843789651008
sg23
F0.01167102564602461
sg24
F0.0005059335542539643
sg25
F0.0024665703127948616
ssS'KISHKILL JOSEPH G'
p134
(dp135
g3
F0.0
sg4
F0.0
sg5
F0.5085394054108401
sg6
I00
sg7
F0.0
sg8
F0.0
sg9
F0.9854348236752458
sg10
F0.9999999999999999
sg11
F0.0
sg12
F0.0
sg13
F0.0
sg14
F0.0
sg15
F0.0
sg16
F0.0
sg17
F0.0
sg18
F0.02106178695134632
sg19
F0.0
sg20
F0.0
sg21
F0.07006960041306912
sg22
F0.15680067095130024
sg23
F0.006806657097122626
sg24
F0.0
sg25
F0.04491980436940001
ssS'HAYSLETT RODERICK J'
p136
(dp137
g3
F2649.0
sg4
F0.0
sg5
F0.0
sg6
I00
sg7
F0.0
sg8
F35.0
sg9
F1.0
sg10
F0.9999999999999999
sg11
F571.0
sg12
F0.0
sg13
F1061.0
sg14
F0.0
sg15
F0.01321253303133258
sg16
F0.0
sg17
F0.0
sg18
F0.007058897361148561
sg19
F38.0
sg20
F0.03581526861451461
sg21
F0.023483957870959794
sg22
F0.0
sg23
F0.0
sg24
F0.0
sg25
F0.0
ssS'MCCONNELL MICHAEL S'
p138
(dp139
g3
F3329.0
sg4
F0.0
sg5
F0.3556694045802862
sg6
I00
sg7
F0.10775028889691327
sg8
F92.0
sg9
F1.0
sg10
F0.9999999999999999
sg11
F2189.0
sg12
F0.0
sg13
F2742.0
sg14
F3.013384907872605
sg15
F0.02763592670471613
sg16
F0.0
sg17
F0.15714285714285714
sg18
F0.06314954335849354
sg19
F194.0
sg20
F0.07075127644055434
sg21
F0.10014223299846209
sg22
F0.3284907735197407
sg23
F0.02029131132002166
sg24
F0.04725142236676986
sg25
F5.2124915622792834e-05
ssS'DELAINEY DAVID W'
p140
(dp141
g3
F3093.0
sg4
F0.0
sg5
F0.3766955320571946
sg6
I01
sg7
F0.2516757575745797
sg8
F66.0
sg9
F1.0
sg10
F0.9999999999999999
sg11
F2097.0
sg12
F0.0
sg13
F3069.0
sg14
F8.215509238340138
sg15
F0.02133850630455868
sg16
F0.0
sg17
F0.42857142857142855
sg18
F0.07359509793488823
sg19
F609.0
sg20
F0.198435972629521
sg21
F0.08963388619219446
sg22
F0.3286032586492066
sg23
F0.0458477065515185
sg24
F0.06670220642694573
sg25
F0.00016033237935084981
ssS'SULLIVAN-SHAKLOVITZ COLLEEN'
p142
(dp143
g3
F0.0
sg4
F0.05811019649665055
sg5
F0.0
sg6
I00
sg7
F0.10775028889691327
sg8
F0.0
sg9
F1.0
sg10
F0.9999999999999999
sg11
F0.0
sg12
F0.0
sg13
F0.0
sg14
F0.6143298582741017
sg15
F0.0
sg16
F0.0
sg17
F0.014285714285714285
sg18
F0.027741250991293476
sg19
F0.0
sg20
F0.0
sg21
F0.0
sg22
F0.14648173511461784
sg23
F0.009650038601371093
sg24
F0.03966343802375098
sg25
F1.563747468683785e-05
ssS'WROBEL BRUCE'
p144
(dp145
g3
F0.0
sg4
F0.0
sg5
F0.0
sg6
I00
sg7
F0.0
sg8
F0.0
sg9
F1.0
sg10
F0.9999999999999999
sg11
F0.0
sg12
F0.0
sg13
F0.0
sg14
F0.0
sg15
F0.0
sg16
F0.0
sg17
F0.0
sg18
F0.0028330233969491967
sg19
F0.0
sg20
F0.0
sg21
F0.0
sg22
F0.0
sg23
F0.0
sg24
F0.004050554459854647
sg25
F0.0
ssS'LINDHOLM TOD A'
p146
(dp147
g3
F0.0
sg4
F0.0651609586635418
sg5
F0.2523441290768175
sg6
I00
sg7
F0.03401073650930126
sg8
F0.0
sg9
F1.0
sg10
F0.9999999999999999
sg11
F0.0
sg12
F0.0
sg13
F0.0
sg14
F0.8458197473536415
sg15
F0.0
sg16
F0.0
sg17
F0.02857142857142857
sg18
F0.06239468811269247
sg19
F0.0
sg20
F0.0
sg21
F0.03487723021490623
sg22
F0.21278317006491743
sg23
F0.008457809489827774
sg24
F0.0742206969620463
sg25
F0.00025386764460730586
ssS'MEYER JEROME J'
p148
(dp149
g3
F0.0
sg4
F0.0
sg5
F0.009402744324912683
sg6
I00
sg7
F0.0
sg8
F0.0
sg9
F0.989057712249735
sg10
F0.9999999999999999
sg11
F0.0
sg12
F0.0
sg13
F0.0
sg14
F0.0
sg15
F0.0
sg16
F0.3066845817937521
sg17
F0.0
sg18
F0.0
sg19
F0.0
sg20
F0.0
sg21
F0.0
sg22
F0.0
sg23
F2.077060930394096e-05
sg24
F0.0
sg25
F0.0
ssS'LAY KENNETH L'
p150
(dp151
g3
F4273.0
sg4
F0.06478929454062442
sg5
F0.4363992428845574
sg6
I01
sg7
F0.6996494367627687
sg8
F123.0
sg9
F0.9143929920961903
sg10
F0.9999999999999999
sg11
F2411.0
sg12
F1.0
sg13
F36.0
sg14
F6.527896031132468
sg15
F0.028785396676807865
sg16
F0.0
sg17
F0.9999999999999999
sg18
F1.0
sg19
F16.0
sg20
F0.4444444444444444
sg21
F0.9999999999999999
sg22
F0.9649613321118948
sg23
F1.0
sg24
F1.0
sg25
F1.0
ssS'BUTTS ROBERT H'
p152
(dp153
g3
F0.0
sg4
F0.0
sg5
F0.04113427433632187
sg6
I00
sg7
F0.03401073650930126
sg8
F0.0
sg9
F0.9785982480240476
sg10
F0.9999999999999999
sg11
F0.0
sg12
F0.0
sg13
F0.0
sg14
F2.8678933602532926
sg15
F0.0
sg16
F0.0
sg17
F0.10714285714285714
sg18
F0.008503733184866863
sg19
F0.0
sg20
F0.0
sg21
F0.028290723273358732
sg22
F0.23533328893920225
sg23
F0.012278722882344889
sg24
F0.0
sg25
F0.014542465348273106
ssS'OLSON CINDY K'
p154
(dp155
g3
F1184.0
sg4
F0.02481464688715332
sg5
F0.278851912241053
sg6
I00
sg7
F0.019434706576743576
sg8
F20.0
sg9
F1.0
sg10
F0.9999999999999999
sg11
F856.0
sg12
F0.0
sg13
F52.0
sg14
F2.279094925823057
sg15
F0.016891891891891893
sg16
F0.0
sg17
F0.10714285714285714
sg18
F0.05308000121685818
sg19
F15.0
sg20
F0.28846153846153844
sg21
F0.06569225727074413
sg22
F0.296131051474995
sg23
F0.012761294337465506
sg24
F0.047659709405834055
sg25
F9.38248481210271e-05
ssS'MCDONALD REBECCA'
p156
(dp157
g3
F894.0
sg4
F0.0
sg5
F0.0
sg6
I00
sg7
F0.0
sg8
F54.0
sg9
F1.0
sg10
F0.9999999999999999
sg11
F720.0
sg12
F0.0
sg13
F13.0
sg14
F0.0
sg15
F0.06040268456375839
sg16
F0.0
sg17
F0.0
sg18
F0.03444030367860544
sg19
F1.0
sg20
F0.07692307692307693
sg21
F0.0632762743896466
sg22
F0.0
sg23
F0.0
sg24
F0.022047645676722374
sg25
F0.0
ssS'CUMBERLAND MICHAEL S'
p158
(dp159
g3
F0.0
sg4
F0.0
sg5
F0.09767313770146396
sg6
I00
sg7
F0.05344544308604483
sg8
F0.0
sg9
F1.0
sg10
F0.9999999999999999
sg11
F0.0
sg12
F0.0
sg13
F0.0
sg14
F1.7577163748857485
sg15
F0.0
sg16
F0.0
sg17
F0.04642857142857142
sg18
F0.004234161468853704
sg19
F0.0
sg20
F0.0
sg21
F0.014086459182801105
sg22
F0.16638710362490078
sg23
F0.007801830967352358
sg24
F0.0
sg25
F6.882419414639128e-05
ssS'GAHN ROBERT S'
p160
(dp161
g3
F0.0
sg4
F0.023347786938113454
sg5
F0.21891652059117953
sg6
I00
sg7
F0.0
sg8
F0.0
sg9
F0.9997026583258808
sg10
F0.9999999999999999
sg11
F0.0
sg12
F0.0
sg13
F0.0
sg14
F2.6554622724053165
sg15
F0.0
sg16
F0.0
sg17
F0.07283857142857142
sg18
F0.006487609325320151
sg19
F0.0
sg20
F0.0
sg21
F0.015944647003250437
sg22
F0.17278435790788457
sg23
F0.00869628041840524
sg24
F0.002423316334183291
sg25
F0.007388899844773931
ssS'BADUM JAMES P'
p162
(dp163
g3
F0.0
sg4
F0.057148148384665975
sg5
F0.015238478250416371
sg6
I00
sg7
F0.0
sg8
F0.0
sg9
F1.0
sg10
F0.9999999999999999
sg11
F0.0
sg12
F0.0
sg13
F0.0
sg14
F0.0
sg15
F0.0
sg16
F0.0
sg17
F0.0
sg18
F0.005249777856186667
sg19
F0.0
sg20
F0.0
sg21
F0.0
sg22
F0.0
sg23
F0.0017619386319167323
sg24
F0.007505942637650726
sg25
F0.0
ssS'HERMANN ROBERT J'
p164
(dp165
g3
F0.0
sg4
F0.0
sg5
F0.21138470819144706
sg6
I00
sg7
F0.029152059865115366
sg8
F0.0
sg9
F0.9201001259564443
sg10
F0.9999999999999999
sg11
F0.0
sg12
F0.0
sg13
F0.0
sg14
F2.665011821231007
sg15
F0.0
sg16
F0.0
sg17
F0.09999999999999999
sg18
F0.013604783930499968
sg19
F0.0
sg20
F0.0
sg21
F0.03255940679978869
sg22
F0.2363654524871812
sg23
F0.012528617163226658
sg24
F0.005458772092451278
sg25
F0.04019805923494717
ssS'SCRIMSHAW MATTHEW'
p166
(dp167
g3
F0.0
sg4
F0.0
sg5
F0.0
sg6
I00
sg7
F0.0
sg8
F0.0
sg9
F1.0
sg10
F0.9999999999999999
sg11
F0.0
sg12
F0.0
sg13
F0.0
sg14
F0.0
sg15
F0.0
sg16
F0.0
sg17
F0.0
sg18
F0.015466418114831746
sg19
F0.0
sg20
F0.0
sg21
F0.0
sg22
F0.0
sg23
F0.0
sg24
F0.02211332562253875
sg25
F0.0
ssS'GATHMANN WILLIAM D'
p168
(dp169
g3
F0.0
sg4
F0.0
sg5
F0.0
sg6
I00
sg7
F0.0
sg8
F0.0
sg9
F1.0
sg10
F0.9721945563238867
sg11
F0.0
sg12
F0.0
sg13
F0.0
sg14
F0.0
sg15
F0.0
sg16
F0.0
sg17
F0.0
sg18
F0.03961223600581534
sg19
F0.0
sg20
F0.0
sg21
F0.017885006964647822
sg22
F0.0
sg23
F0.0
sg24
F0.05105818078661284
sg25
F0.0
ssS'HAEDICKE MARK E'
p170
(dp171
g3
F4009.0
sg4
F0.6888963746783061
sg5
F0.3329603126379703
sg6
I00
sg7
F0.1911104097341449
sg8
F180.0
sg9
F0.733338736086721
sg10
F0.873362923259448
sg11
F1847.0
sg12
F0.0
sg13
F1941.0
sg14
F3.073838957567658
sg15
F0.04489897730107259
sg16
F0.0
sg17
F0.16428571428571428
sg18
F0.01635293676381455
sg19
F61.0
sg20
F0.03142709943328181
sg21
F0.03550872955366775
sg22
F0.3366679924913926
sg23
F0.037264124311256586
sg24
F0.017722813393491816
sg25
F0.005056309870653952
ssS'BOWEN JR RAYMOND M'
p172
(dp173
g3
F1858.0
sg4
F0.0
sg5
F0.2881016597963832
sg6
I01
sg7
F0.1893509857477523
sg8
F140.0
sg9
F0.9997622978747204
sg10
F0.9999999999999999
sg11
F1593.0
sg12
F0.0
sg13
F27.0
sg14
F4.845639462887786
sg15
F0.07534983853606028
sg16
F0.0
sg17
F0.19285714285714284
sg18
F0.005132449596190827
sg19
F15.0
sg20
F0.5555555555555556
sg21
F0.017074937334427876
sg22
F0.25070775643459936
sg23
F0.025778238085122473
sg24
F0.0
sg25
F0.0001564712744899022
ssS'GILLIS JOHN'
p174
(dp175
g3
F0.0
sg4
F0.0
sg5
F0.0
sg6
I00
sg7
F0.0
sg8
F0.0
sg9
F1.0
sg10
F0.9999999999999999
sg11
F0.0
sg12
F0.0
sg13
F0.0
sg14
F0.0
sg15
F0.0
sg16
F0.0
sg17
F0.0
sg18
F0.0017438579511113788
sg19
F0.0
sg20
F0.0
sg21
F0.005137486253271473
sg22
F0.0
sg23
F0.0
sg24
F0.00028539916171893266
sg25
F0.0
ssS'FITZGERALD JAY L'
p176
(dp177
g3
F936.0
sg4
F0.0
sg5
F0.1043437968552607
sg6
I00
sg7
F0.10813781694605354
sg8
F1.0
sg9
F1.0
sg10
F0.9999999999999999
sg11
F723.0
sg12
F0.0
sg13
F16.0
sg14
F1.7574074724965731
sg15
F0.0010683760683760685
sg16
F0.0
sg17
F0.049999999999999996
sg18
F0.033012287213227395
sg19
F8.0
sg20
F0.5
sg21
F0.06481471570945718
sg22
F0.17921760743229745
sg23
F0.013662223137120406
sg24
F0.0193447528710521
sg25
F0.02755033456956258
ssS'MORAN MICHAEL P'
p178
(dp179
g3
F672.0
sg4
F0.0
sg5
F0.0
sg6
I00
sg7
F0.0
sg8
F0.0
sg9
F1.0
sg10
F0.9999999999999999
sg11
F127.0
sg12
F0.0
sg13
F19.0
sg14
F0.0
sg15
F0.0
sg16
F0.0
sg17
F0.0
sg18
F0.004502965766008354
sg19
F0.0
sg20
F0.0
sg21
F0.010947388558521806
sg22
F0.0
sg23
F0.0
sg24
F0.0017333857685997687
sg25
F0.0
ssS'REDMOND BRIAN L'
p180
(dp181
g3
F1671.0
sg4
F0.0
sg5
F0.0642105585256357
sg6
I00
sg7
F0.0
sg8
F204.0
sg9
F1.0
sg10
F0.9999999999999999
sg11
F1063.0
sg12
F0.0
sg13
F221.0
sg14
F0.0
sg15
F0.12208258527827648
sg16
F0.0
sg17
F0.0
sg18
F0.16066608568611926
sg19
F49.0
sg20
F0.22171945701357465
sg21
F0.025829352647467153
sg22
F0.08714447949981012
sg23
F0.001076952712719308
sg24
F0.218614040183084
sg25
F0.0
ssS'BAZELIDES PHILIP J'
p182
(dp183
g3
F0.0
sg4
F0.21862216063297849
sg5
F0.0
sg6
I00
sg7
F0.018220037415697103
sg8
F0.0
sg9
F1.0
sg10
F0.9999999999999999
sg11
F0.0
sg12
F0.0
sg13
F0.0
sg14
F0.0
sg15
F0.0
sg16
F0.0
sg17
F0.0
sg18
F0.03257256076848422
sg19
F0.0
sg20
F0.0
sg21
F0.0
sg22
F0.0727265855453909
sg23
F0.008305694469667392
sg24
F0.04657107012661789
sg25
F8.436514121170544e-05
ssS'BELDEN TIMOTHY N'
p184
(dp185
g3
F7991.0
sg4
F0.6845813669831985
sg5
F0.07586454103154794
sg6
I01
sg7
F0.0
sg8
F228.0
sg9
F0.3338536337035931
sg10
F0.9999999999999999
sg11
F5521.0
sg12
F0.0
sg13
F484.0
sg14
F24.532820246823583
sg15
F0.028532098610937303
sg16
F0.0
sg17
F0.7499998571428571
sg18
F0.02261664092653243
sg19
F108.0
sg20
F0.2231404958677686
sg21
F0.010674181432022638
sg22
F0.1925736417645587
sg23
F0.05312515446993989
sg24
F0.027749078384590085
sg25
F0.020338176799798525
ssS'DURAN WILLIAM D'
p186
(dp187
g3
F904.0
sg4
F0.0
sg5
F0.11271490581956
sg6
I00
sg7
F0.21479587533335381
sg8
F106.0
sg9
F1.0
sg10
F0.9999999999999999
sg11
F599.0
sg12
F0.0
sg13
F12.0
sg14
F3.559698517266911
sg15
F0.1172566371681416
sg16
F0.0
sg17
F0.10714285714285714
sg18
F0.03341289745049886
sg19
F3.0
sg20
F0.25
sg21
F0.012806186065095239
sg22
F0.18959773517940928
sg23
F0.020213085980193102
sg24
F0.04226891722184077
sg25
F0.0001513553105491466
ssS'THORN TERENCE H'
p188
(dp189
g3
F266.0
sg4
F0.005295894452497877
sg5
F0.20171531235383347
sg6
I00
sg7
F0.03886941315348715
sg8
F0.0
sg9
F1.0
sg10
F0.9999999999999999
sg11
F73.0
sg12
F0.0
sg13
F41.0
sg14
F0.0
sg15
F0.0
sg16
F0.0
sg17
F0.0
sg18
F0.09810198224486633
sg19
F0.0
sg20
F0.0
sg21
F0.02474783720621766
sg22
F0.1998572788677337
sg23
F0.00880122462199205
sg24
F0.12962694256591517
sg25
F0.04118148264303052
ssS'FASTOW ANDREW S'
p190
(dp191
g3
F0.0
sg4
F0.0
sg5
F0.24444949576636085
sg6
I01
sg7
F0.3373971952608857
sg8
F0.0
sg9
F0.6044799288662835
sg10
F0.9999999999999999
sg11
F0.0
sg12
F0.0
sg13
F0.0
sg14
F2.949865894558178
sg15
F0.0
sg16
F0.0
sg17
F0.1857142857142857
sg18
F0.03653856953760082
sg19
F0.0
sg20
F0.0
sg21
F0.12155867747969845
sg22
F0.3965757726828513
sg23
F0.023407568997361745
sg24
F0.0
sg25
F0.02678293997844924
ssS'FOY JOE'
p192
(dp193
g3
F57.0
sg4
F0.05803420331687879
sg5
F0.0
sg6
I00
sg7
F0.0
sg8
F0.0
sg9
F1.0
sg10
F0.9999999999999999
sg11
F2.0
sg12
F0.0
sg13
F13.0
sg14
F0.0
sg15
F0.0
sg16
F0.0
sg17
F0.0
sg18
F0.006993147109234891
sg19
F0.0
sg20
F0.0
sg21
F0.0
sg22
F0.0
sg23
F0.0017550730330254715
sg24
F0.009998548985594198
sg25
F0.0
ssS'CALGER CHRISTOPHER F'
p194
(dp195
g3
F2598.0
sg4
F0.0
sg5
F0.15657252265445026
sg6
I01
sg7
F0.07293923117078172
sg8
F199.0
sg9
F0.9250938680841665
sg10
F0.9999999999999999
sg11
F2188.0
sg12
F0.0
sg13
F144.0
sg14
F5.204234998272194
sg15
F0.07659738260200154
sg16
F0.0
sg17
F0.17857142857142855
sg18
F0.0025662146168857645
sg19
F25.0
sg20
F0.1736111111111111
sg21
F0.0085374347957626
sg22
F0.21614152609025086
sg23
F0.015829473510052303
sg24
F0.0
sg25
F4.691242406051355e-05
ssS'RICE KENNETH D'
p196
(dp197
g3
F905.0
sg4
F0.0
sg5
F0.20523423805423083
sg6
I01
sg7
F0.31426134316366705
sg8
F42.0
sg9
F0.0
sg10
F0.9999999999999999
sg11
F864.0
sg12
F0.0
sg13
F18.0
sg14
F4.160366682832663
sg15
F0.04640883977900553
sg16
F0.0
sg17
F0.24999999999999997
sg18
F0.459020631162508
sg19
F4.0
sg20
F0.2222222222222222
sg21
F0.18618215497489649
sg22
F0.3785223593440947
sg23
F0.004876892714530628
sg24
F0.5762767471098494
sg25
F0.016876792819580513
ssS'KAMINSKI WINCENTY J'
p198
(dp199
g3
F4607.0
sg4
F0.0
sg5
F0.36537814244436384
sg6
I00
sg7
F0.06286466797552938
sg8
F41.0
sg9
F1.0
sg10
F0.9999999999999999
sg11
F583.0
sg12
F0.0
sg13
F14368.0
sg14
F1.4540114357999425
sg15
F0.008899500759713479
sg16
F0.0
sg17
F0.05714285714285714
sg18
F0.019874474644491505
sg19
F171.0
sg20
F0.011901447661469933
sg21
F0.0085374347957626
sg22
F0.24755817280955458
sg23
F0.010494623140082947
sg24
F0.024746724620290723
sg25
F0.00045068746489411064
ssS'COX DAVID'
p200
(dp201
g3
F102.0
sg4
F0.0
sg5
F0.12178979992393876
sg6
I00
sg7
F0.0
sg8
F0.0
sg9
F0.9882290364132261
sg10
F0.9999999999999999
sg11
F71.0
sg12
F0.0
sg13
F33.0
sg14
F2.5454360331924857
sg15
F0.0
sg16
F0.0
sg17
F0.11428571428571428
sg18
F0.010092286963991382
sg19
F4.0
sg20
F0.12121212121212122
sg21
F0.025612372130190478
sg22
F0.28282181095659154
sg23
F0.010635334120453485
sg24
F0.0034223152972786145
sg25
F4.768464503270307e-05
ssS'OVERDYKE JR JERE C'
p202
(dp203
g3
F0.0
sg4
F0.0
sg5
F0.08232974738047674
sg6
I00
sg7
F0.026399328025585405
sg8
F0.0
sg9
F1.0
sg10
F0.9999999999999999
sg11
F0.0
sg12
F0.0
sg13
F0.0
sg14
F0.0
sg15
F0.0
sg16
F0.0
sg17
F0.0
sg18
F0.14880029308851841
sg19
F0.0
sg20
F0.0
sg21
F0.1382643482516302
sg22
F0.08543560541296441
sg23
F0.00241200752496676
sg24
F0.15332826138196196
sg25
F1.6988861388169517e-05
ssS'PEREIRA PAULO V. FERRAZ'
p204
(dp205
g3
F0.0
sg4
F0.0
sg5
F0.12214387816211539
sg6
I00
sg7
F0.0
sg8
F0.0
sg9
F0.9711076348324642
sg10
F0.9999999999999999
sg11
F0.0
sg12
F0.0
sg13
F0.0
sg14
F0.0
sg15
F0.0
sg16
F0.8097797399107443
sg17
F0.0
sg18
F0.0
sg19
F0.0
sg20
F0.0
sg21
F0.0
sg22
F0.0
sg23
F0.0002698151395493809
sg24
F0.0
sg25
F0.0
ssS'STABLER FRANK'
p206
(dp207
g3
F0.0
sg4
F0.0
sg5
F0.07218824722529431
sg6
I00
sg7
F0.0
sg8
F0.0
sg9
F1.0
sg10
F0.9999999999999999
sg11
F0.0
sg12
F0.0
sg13
F0.0
sg14
F2.0876652387036434
sg15
F0.0
sg16
F0.0
sg17
F0.07142857142857142
sg18
F0.010420142277110618
sg19
F0.0
sg20
F0.0
sg21
F0.03466634655887054
sg22
F0.21552330781870635
sg23
F0.010738598135282097
sg24
F0.0
sg25
F0.03437068672356198
ssS'SKILLING JEFFREY K'
p208
(dp209
g3
F3627.0
sg4
F0.0
sg5
F0.1282375209277724
sg6
I01
sg7
F0.37314636627347664
sg8
F88.0
sg9
F1.0
sg10
F0.9999999999999999
sg11
F2042.0
sg12
F0.0
sg13
F108.0
sg14
F5.03933380007163
sg15
F0.0242624758753791
sg16
F0.0
sg17
F0.7999999999999999
sg18
F0.5313302902919438
sg19
F30.0
sg20
F0.2777777777777778
sg21
F0.46361020625410604
sg22
F1.0
sg23
F0.08384253915996143
sg24
F0.5604339348249978
sg25
F0.0021353840433470796
ssS'BLAKE JR. NORMAN P'
p210
(dp211
g3
F0.0
sg4
F0.0
sg5
F0.005590939094171698
sg6
I00
sg7
F0.0
sg8
F0.0
sg9
F0.9675309740422431
sg10
F0.9999999999999999
sg11
F0.0
sg12
F0.0
sg13
F0.0
sg14
F0.0
sg15
F0.0
sg16
F0.9100244733432507
sg17
F0.0
sg18
F0.0
sg19
F0.0
sg20
F0.0
sg21
F0.0
sg22
F0.0
sg23
F1.2350352998484652e-05
sg24
F0.0
sg25
F0.0
ssS'SHERRICK JEFFREY B'
p212
(dp213
g3
F613.0
sg4
F0.0
sg5
F0.0
sg6
I00
sg7
F0.0
sg8
F39.0
sg9
F1.0
sg10
F0.9999999999999999
sg11
F583.0
sg12
F0.0
sg13
F25.0
sg14
F0.0
sg15
F0.0636215334420881
sg16
F0.0
sg17
F0.0
sg18
F0.037313481766410556
sg19
F18.0
sg20
F0.72
sg21
F0.02750355074424385
sg22
F0.0
sg23
F0.0
sg24
F0.04152943556238337
sg25
F0.0
ssS'PRENTICE JAMES'
p214
(dp215
g3
F0.0
sg4
F0.1801957941925884
sg5
F0.0
sg6
I00
sg7
F0.0
sg8
F0.0
sg9
F1.0
sg10
F0.9999999999999999
sg11
F0.0
sg12
F0.0
sg13
F0.0
sg14
F0.0
sg15
F0.0
sg16
F0.0
sg17
F0.0
sg18
F0.022297663628227184
sg19
F0.0
sg20
F0.0
sg21
F0.014145327765228028
sg22
F0.0
sg23
F0.005449489455816119
sg24
F0.025801242934747674
sg25
F0.0
ssS'GRAY RODNEY'
p216
(dp217
g3
F0.0
sg4
F0.029881603903111887
sg5
F0.0
sg6
I00
sg7
F0.0710581459212187
sg8
F0.0
sg9
F1.0
sg10
F0.9999999999999999
sg11
F0.0
sg12
F0.0
sg13
F0.0
sg14
F0.0
sg15
F0.0
sg16
F0.0
sg17
F0.0
sg18
F0.0
sg19
F0.0
sg20
F0.0
sg21
F0.0
sg22
F0.005952713051334614
sg23
F0.011072424604015961
sg24
F0.0
sg25
F0.06571919014483872
ssS'PICKERING MARK R'
p218
(dp219
g3
F898.0
sg4
F0.0
sg5
F0.13836590707413352
sg6
I00
sg7
F0.0
sg8
F7.0
sg9
F1.0
sg10
F0.9999999999999999
sg11
F728.0
sg12
F0.004906470407850352
sg13
F67.0
sg14
F0.45798939601885086
sg15
F0.0077951002227171495
sg16
F0.0
sg17
F0.04285714285714285
sg18
F0.0005863969509476242
sg19
F0.0
sg20
F0.0
sg21
F0.0
sg22
F0.5894553739995573
sg23
F0.013390235339694044
sg24
F0.0008384091664981968
sg25
F0.0
ssS'NOLES JAMES L'
p220
(dp221
g3
F0.0
sg4
F0.24726552272451513
sg5
F0.0
sg6
I00
sg7
F0.0
sg8
F0.0
sg9
F1.0
sg10
F0.9636950036283494
sg11
F0.0
sg12
F0.0
sg13
F0.0
sg14
F0.0
sg15
F0.0
sg16
F0.0
sg17
F0.0
sg18
F0.007507725807318001
sg19
F0.0
sg20
F0.0
sg21
F0.03138264483737435
sg22
F0.0
sg23
F0.007477815255965217
sg24
F0.0
sg25
F0.0
ssS'KEAN STEVEN J'
p222
(dp223
g3
F12754.0
sg4
F0.0
sg5
F0.1833906706941245
sg6
I00
sg7
F0.05830411973023073
sg8
F140.0
sg9
F1.0
sg10
F0.9999999999999999
sg11
F3639.0
sg12
F0.0
sg13
F6759.0
sg14
F2.473178380463869
sg15
F0.010976948408342482
sg16
F0.0
sg17
F0.14285714285714285
sg18
F0.12530303861459963
sg19
F387.0
sg20
F0.05725699067909454
sg21
F0.27988617024577256
sg22
F0.3638560982238148
sg23
F0.016874521948880294
sg24
F0.05886879569065025
sg25
F0.00011882550209566293
ssS'FOWLER PEGGY'
p224
(dp225
g3
F517.0
sg4
F0.0
sg5
F0.0
sg6
I00
sg7
F0.0
sg8
F0.0
sg9
F1.0
sg10
F0.9999999999999999
sg11
F10.0
sg12
F0.0
sg13
F36.0
sg14
F0.0
sg15
F0.0
sg16
F0.0
sg17
F0.0
sg18
F0.03837802904731693
sg19
F0.0
sg20
F0.0
sg21
F0.03794754179296766
sg22
F0.0
sg23
F0.0
sg24
F0.03856303691026629
sg25
F0.0
ssS'WASAFF GEORGE'
p226
(dp227
g3
F400.0
sg4
F0.2654330014751617
sg5
F0.0
sg6
I00
sg7
F0.03886941315348715
sg8
F22.0
sg9
F0.8335443070483673
sg10
F0.9999999999999999
sg11
F337.0
sg12
F0.0
sg13
F30.0
sg14
F1.2500192310650933
sg15
F0.055
sg16
F0.0
sg17
F0.04642857142857142
sg18
F0.04187382883000104
sg19
F7.0
sg20
F0.23333333333333334
sg21
F0.02629555930369509
sg22
F0.23396546976489707
sg23
F0.009988384198489079
sg24
F0.0485688060317481
sg25
F0.00013755186067125887
ssS'WHITE JR THOMAS E'
p228
(dp229
g3
F0.0
sg4
F0.0
sg5
F0.35562131988127454
sg6
I00
sg7
F0.0
sg8
F0.0
sg9
F1.0
sg10
F0.9999999999999999
sg11
F0.0
sg12
F0.0
sg13
F0.0
sg14
F1.417130908254945
sg15
F0.0
sg16
F0.0
sg17
F0.06428571428571428
sg18
F0.30837098242849464
sg19
F0.0
sg20
F0.0
sg21
F0.9380409863529212
sg22
F0.2857509237278832
sg23
F0.01867866808115385
sg24
F0.0377615727132898
sg25
F0.10477716164196958
ssS'ALLEN PHILLIP K'
p230
(dp231
g3
F2902.0
sg4
F0.9162979826684462
sg5
F0.06062169144485778
sg6
I00
sg7
F0.05923795738124326
sg8
F47.0
sg9
F0.12080033420975878
sg10
F0.95161163989879
sg11
F1407.0
sg12
F0.0
sg13
F2195.0
sg14
F20.672922185635414
sg15
F0.016195727084769126
sg16
F0.0
sg17
F0.5964285714285714
sg18
F0.03521763903531165
sg19
F65.0
sg20
F0.029612756264236904
sg21
F0.0085374347957626
sg22
F0.18173547457026182
sg23
F0.04330292548962511
sg24
F0.05035290743226814
sg25
F1.4672198471600946e-05
ssS'SHARP VICTORIA T'
p232
(dp233
g3
F3136.0
sg4
F0.05985867822955049
sg5
F0.5085481480833877
sg6
I00
sg7
F0.08204516859024914
sg8
F24.0
sg9
F1.0
sg10
F0.9999999999999999
sg11
F2477.0
sg12
F0.0
sg13
F136.0
sg14
F2.417931379107461
sg15
F0.007653061224489796
sg16
F0.0
sg17
F0.0857142857142857
sg18
F0.010061804422302078
sg19
F6.0
sg20
F0.04411764705882353
sg21
F0.014433506073218966
sg22
F0.2233018794915312
sg23
F0.015223195743544988
sg24
F0.008183005057821643
sg25
F0.00023176281927838073
ssS'JAEDICKE ROBERT'
p234
(dp235
g3
F0.0
sg4
F0.0
sg5
F0.0
sg6
I00
sg7
F0.0
sg8
F0.0
sg9
F0.9928660826746826
sg10
F0.9830703899803799
sg11
F0.0
sg12
F0.0
sg13
F0.0
sg14
F0.0
sg15
F0.0
sg16
F0.8697634243485771
sg17
F0.0
sg18
F0.008791474531968775
sg19
F0.0
sg20
F0.0
sg21
F0.0029869878077678617
sg22
F0.0
sg23
F0.0008087115430985846
sg24
F0.012569732538217809
sg25
F0.0
ssS'WINOKUR JR. HERBERT S'
p236
(dp237
g3
F0.0
sg4
F0.0
sg5
F0.006176698154858959
sg6
I00
sg7
F0.0
sg8
F0.0
sg9
F0.9928660826746826
sg10
F0.9999999999999999
sg11
F0.0
sg12
F0.0
sg13
F0.0
sg14
F0.0
sg15
F0.0
sg16
F0.8683957963433946
sg17
F0.0
sg18
F0.0
sg19
F0.0
sg20
F0.0
sg21
F0.0
sg22
F0.0
sg23
F0.0008207046145795212
sg24
F0.0
sg25
F0.0
ssS'BROWN MICHAEL'
p238
(dp239
g3
F1486.0
sg4
F0.0
sg5
F0.2154544222623414
sg6
I00
sg7
F0.0
sg8
F13.0
sg9
F1.0
sg10
F0.9999999999999999
sg11
F761.0
sg12
F0.0
sg13
F41.0
sg14
F0.0
sg15
F0.008748317631224764
sg16
F0.0
sg17
F0.0
sg18
F0.0
sg19
F1.0
sg20
F0.024390243902439025
sg21
F0.0
sg22
F0.0
sg23
F0.0004759376064029019
sg24
F0.0
sg25
F0.0
ssS'MCCLELLAN GEORGE'
p240
(dp241
g3
F1744.0
sg4
F0.0
sg5
F1.0
sg6
I00
sg7
F0.0
sg8
F52.0
sg9
F0.9643304133734126
sg10
F0.9999999999999999
sg11
F1469.0
sg12
F0.0
sg13
F49.0
sg14
F3.4166878627858153
sg15
F0.02981651376146789
sg16
F0.0
sg17
F0.12857142857142856
sg18
F0.019300743118347317
sg19
F0.0
sg20
F0.0
sg21
F0.029881123399523115
sg22
F0.23704036326397648
sg23
F0.012734314754762013
sg24
F0.014753678076965716
sg25
F0.0049795704115426186
ssS'HUGHES JAMES A'
p242
(dp243
g3
F719.0
sg4
F0.0
sg5
F0.0
sg6
I00
sg7
F0.0
sg8
F35.0
sg9
F1.0
sg10
F0.9999999999999999
sg11
F589.0
sg12
F0.0
sg13
F34.0
sg14
F0.0
sg15
F0.048678720445062586
sg16
F0.0
sg17
F0.0
sg18
F0.022773207568515773
sg19
F5.0
sg20
F0.14705882352941177
sg21
F0.024619667634351448
sg22
F0.0
sg23
F0.0
sg24
F0.02197966576826438
sg25
F0.0
ssS'REYNOLDS LAWRENCE'
p244
(dp245
g3
F0.0
sg4
F0.016400796970490378
sg5
F0.036758566726262557
sg6
I00
sg7
F0.03036672902616184
sg8
F0.0
sg9
F0.9429286613974602
sg10
F0.946145310598236
sg11
F0.0
sg12
F0.0
sg13
F0.0
sg14
F1.3089176559902616
sg15
F0.0
sg16
F0.0
sg17
F0.014285714285714285
sg18
F0.08596791477301258
sg19
F0.0
sg20
F0.0
sg21
F0.01364904326021119
sg22
F0.06875001124851295
sg23
F0.0038091520712097214
sg24
F0.12113152106369837
sg25
F0.019503598984104698
ssS'DIMICHELE RICHARD G'
p246
(dp247
g3
F0.0
sg4
F0.0
sg5
F0.15654629463680753
sg6
I00
sg7
F0.13504439081329195
sg8
F0.0
sg9
F1.0
sg10
F0.9999999999999999
sg11
F0.0
sg12
F0.0
sg13
F0.0
sg14
F3.8053487982708494
sg15
F0.0
sg16
F0.0
sg17
F0.14285714285714285
sg18
F0.16937016471446045
sg19
F0.0
sg20
F0.0
sg21
F0.0085374347957626
sg22
F0.23647793761664707
sg23
F0.022867475217915895
sg24
F0.23849025910505717
sg25
F0.036167837981090044
ssS'BHATNAGAR SANJAY'
p248
(dp249
g3
F523.0
sg4
F0.0
sg5
F0.6026499040491688
sg6
I00
sg7
F0.0
sg8
F0.0
sg9
F1.0
sg10
F0.0
sg11
F463.0
sg12
F0.0
sg13
F29.0
sg14
F0.0
sg15
F0.0
sg16
F0.0
sg17
F0.0
sg18
F0.3147274577735348
sg19
F1.0
sg20
F0.034482758620689655
sg21
F0.17643571259504498
sg22
F0.0
sg23
F0.001331250246898427
sg24
F0.44998594402578007
sg25
F0.0
ssS'CARTER REBECCA C'
p250
(dp251
g3
F312.0
sg4
F0.0
sg5
F0.0
sg6
I00
sg7
F0.014576029932557683
sg8
F29.0
sg9
F0.9544022833101148
sg10
F0.8820110655061066
sg11
F196.0
sg12
F0.0
sg13
F15.0
sg14
F1.14587351848103
sg15
F0.09294871794871795
sg16
F0.0
sg17
F0.04285714285714285
sg18
F0.0
sg19
F7.0
sg20
F0.4666666666666667
sg21
F0.020817461735760136
sg22
F0.23559695408267026
sg23
F0.0046114132344779795
sg24
F0.0
sg25
F5.2124915622792834e-05
ssS'BUCHANAN HAROLD G'
p252
(dp253
g3
F1088.0
sg4
F0.0
sg5
F0.0026228017642713204
sg6
I00
sg7
F0.05923795738124326
sg8
F0.0
sg9
F1.0
sg10
F0.9999999999999999
sg11
F23.0
sg12
F0.0
sg13
F125.0
sg14
F2.015990839337626
sg15
F0.0
sg16
F0.0
sg17
F0.07142857142857142
sg18
F0.02065777619005207
sg19
F0.0
sg20
F0.0
sg21
F0.012806186065095239
sg22
F0.22318579483792242
sg23
F0.010183846157359545
sg24
F0.024032105848123743
sg25
F0.00011728106015128387
ssS'YEAP SOON'
p254
(dp255
g3
F0.0
sg4
F0.0
sg5
F0.24084751467676155
sg6
I00
sg7
F0.0
sg8
F0.0
sg9
F1.0
sg10
F0.9999999999999999
sg11
F0.0
sg12
F0.0
sg13
F0.0
sg14
F0.0
sg15
F0.0
sg16
F0.0
sg17
F0.0
sg18
F0.0039250192190694545
sg19
F0.0
sg20
F0.0
sg21
F0.0
sg22
F0.0
sg23
F0.0005320308046579429
sg24
F0.005611850618649192
sg25
F0.0
ssS'MURRAY JULIA H'
p256
(dp257
g3
F2192.0
sg4
F0.0
sg5
F0.25170154264457106
sg6
I00
sg7
F0.02429338322092947
sg8
F11.0
sg9
F1.0
sg10
F0.9999999999999999
sg11
F395.0
sg12
F0.0
sg13
F45.0
sg14
F1.744561330053558
sg15
F0.005018248175182482
sg16
F0.0
sg17
F0.05714285714285714
sg18
F0.012165751396281635
sg19
F2.0
sg20
F0.044444444444444446
sg21
F0.013344200198161538
sg22
F0.20632832339564708
sg23
F0.007842754185497455
sg24
F0.011659296693550415
sg25
F3.1854115102817845e-05
ssS'GARLAND C KEVIN'
p258
(dp259
g3
F209.0
sg4
F0.0
sg5
F0.21159453233258876
sg6
I00
sg7
F0.07293923117078172
sg8
F10.0
sg9
F1.0
sg10
F0.9999999999999999
sg11
F178.0
sg12
F0.0
sg13
F44.0
sg14
F3.6646460814155017
sg15
F0.04784688995215311
sg16
F0.0
sg17
F0.12142857142857141
sg18
F0.018247843141279474
sg19
F27.0
sg20
F0.6136363636363636
sg21
F0.017606854606253185
sg22
F0.20872380671275256
sg23
F0.015126227608431004
sg24
F0.01852331684658003
sg25
F0.00587023077534171
ssS'DODSON KEITH'
p260
(dp261
g3
F176.0
sg4
F0.0
sg5
F0.12311431481489578
sg6
I00
sg7
F0.0
sg8
F10.0
sg9
F1.0
sg10
F0.9999999999999999
sg11
F114.0
sg12
F0.0
sg13
F14.0
sg14
F0.3167377818400655
sg15
F0.056818181818181816
sg16
F0.0
sg17
F0.009999999999999998
sg18
F0.0
sg19
F3.0
sg20
F0.21428571428571427
sg21
F0.0
sg22
F0.19887640853879116
sg23
F0.0030894325947522895
sg24
F0.0
sg25
F7.47123790593364e-05
ssS'YEAGER F SCOTT'
p262
(dp263
g3
F0.0
sg4
F0.0
sg5
F0.2358204779619082
sg6
I01
sg7
F0.0
sg8
F0.0
sg9
F1.0
sg10
F0.9999999999999999
sg11
F0.0
sg12
F0.0
sg13
F0.0
sg14
F0.0
sg15
F0.0
sg16
F0.0
sg17
F0.0
sg18
F0.24200242565283647
sg19
F0.0
sg20
F0.0
sg21
F0.2422625750134097
sg22
F0.14254385570227615
sg23
F0.0034791494803393433
sg24
F0.24189062286016133
sg25
F0.014281261604429999
ssS'HIRKO JOSEPH'
p264
(dp265
g3
F0.0
sg4
F0.003275689207052678
sg5
F0.34086805995724834
sg6
I01
sg7
F0.0
sg8
F0.0
sg9
F1.0
sg10
F0.9999999999999999
sg11
F0.0
sg12
F0.0
sg13
F0.0
sg14
F0.0
sg15
F0.0
sg16
F0.0
sg17
F0.0
sg18
F0.6264714953211844
sg19
F0.0
sg20
F0.0
sg21
F0.0
sg22
F0.0
sg23
F0.0008796174399460223
sg24
F0.8957063016414396
sg25
F0.00027568288707165986
ssS'DIETRICH JANET R'
p266
(dp267
g3
F2572.0
sg4
F0.0
sg5
F0.01519039355140473
sg6
I00
sg7
F0.10813781694605354
sg8
F305.0
sg9
F1.0
sg10
F0.9999999999999999
sg11
F1902.0
sg12
F0.0
sg13
F63.0
sg14
F2.3990403838464616
sg15
F0.11858475894245724
sg16
F0.0
sg17
F0.0857142857142857
sg18
F0.037977683521496344
sg19
F14.0
sg20
F0.2222222222222222
sg21
F0.021343620860857837
sg22
F0.22506024703534191
sg23
F0.013619803199104502
sg24
F0.04512640245316927
sg25
F4.565756498070558e-05
ssS'DERRICK JR. JAMES V'
p268
(dp269
g3
F2181.0
sg4
F0.0
sg5
F0.22348019566101163
sg6
I00
sg7
F0.09406397983143891
sg8
F64.0
sg9
F0.6336020061716945
sg10
F0.3137312871233907
sg11
F1401.0
sg12
F0.0
sg13
F909.0
sg14
F1.6247778624016247
sg15
F0.029344337459880788
sg16
F0.0
sg17
F0.11428571428571428
sg18
F0.1798391157106287
sg19
F20.0
sg20
F0.022002200220022004
sg21
F0.12108230938806887
sg22
F0.44307892496611945
sg23
F0.00532041426540897
sg24
F0.2571274677725741
sg25
F0.0007222196642402519
ssS'PAI LOU L'
p270
(dp271
g3
F0.0
sg4
F0.0
sg5
F0.140088213566005
sg6
I00
sg7
F0.0
sg8
F0.0
sg9
F1.0
sg10
F0.9999999999999999
sg11
F0.0
sg12
F0.0
sg13
F0.0
sg14
F3.8185574253758414
sg15
F0.0
sg16
F0.0
sg17
F0.14285714285714285
sg18
F0.4849906774735727
sg19
F0.0
sg20
F0.0
sg21
F0.572682444169348
sg22
F0.23565994575517116
sg23
F0.03016018967901954
sg24
F0.4473039255645913
sg25
F0.17659313288986614
ssS'BAY FRANKLIN R'
p272
(dp273
g3
F0.0
sg4
F0.08316304049350864
sg5
F0.5645231090692114
sg6
I00
sg7
F0.0
sg8
F0.0
sg9
F0.9424603910642264
sg10
F0.9682156583438599
sg11
F0.0
sg12
F0.0
sg13
F0.0
sg14
F1.6689545251615756
sg15
F0.0
sg16
F0.0
sg17
F0.05714285714285714
sg18
F0.0012831174896525313
sg19
F0.0
sg20
F0.0
sg21
F0.009876644238798067
sg22
F0.21567538771374423
sg23
F0.007992445485092849
sg24
F0.0
sg25
F6.66040588513464e-06
ssS'MCCARTY DANNY J'
p274
(dp275
g3
F1433.0
sg4
F0.0
sg5
F0.0
sg6
I00
sg7
F0.0
sg8
F25.0
sg9
F1.0
sg10
F0.9999999999999999
sg11
F508.0
sg12
F0.0
sg13
F215.0
sg14
F0.0
sg15
F0.017445917655268667
sg16
F0.0
sg17
F0.0
sg18
F0.015453671240351114
sg19
F2.0
sg20
F0.009302325581395349
sg21
F0.006405497905592678
sg22
F0.0
sg23
F0.0
sg24
F0.01934224911425236
sg25
F0.0
ssS'FUGH JOHN L'
p276
(dp277
g3
F0.0
sg4
F0.016153659486694807
sg5
F0.0
sg6
I00
sg7
F0.0
sg8
F0.0
sg9
F1.0
sg10
F0.9999999999999999
sg11
F0.0
sg12
F0.0
sg13
F0.0
sg14
F0.0
sg15
F0.0
sg16
F0.0
sg17
F0.0
sg18
F0.003591482790966042
sg19
F0.0
sg20
F0.0
sg21
F0.0
sg22
F0.0
sg23
F0.0004885197095749312
sg24
F0.005134972288652648
sg25
F0.0
ssS'FALLON JAMES B'
p278
(dp279
g3
F1755.0
sg4
F0.0
sg5
F0.41931606072660355
sg6
I00
sg7
F0.07275324102884227
sg8
F42.0
sg9
F1.0
sg10
F0.9999999999999999
sg11
F1604.0
sg12
F0.0
sg13
F75.0
sg14
F8.207808580771403
sg15
F0.023931623931623933
sg16
F0.0
sg17
F0.3571428571428571
sg18
F0.04749328640854531
sg19
F37.0
sg20
F0.49333333333333335
sg21
F0.09430774001953976
sg22
F0.27409296491003887
sg23
F0.03549968470871702
sg24
F0.027374126247103794
sg25
F0.03875400601695276
ssS'KOENIG MARK E'
p280
(dp281
g3
F2374.0
sg4
F0.0
sg5
F0.5552340194874171
sg6
I01
sg7
F0.05830411973023073
sg8
F53.0
sg9
F1.0
sg10
F0.9999999999999999
sg11
F2271.0
sg12
F0.0
sg13
F61.0
sg14
F2.2584579249288588
sg15
F0.02232518955349621
sg16
F0.0
sg17
F0.09999999999999999
sg18
F0.039096964985476095
sg19
F15.0
sg20
F0.2459016393442623
sg21
F0.08456468478482211
sg22
F0.27891452749946455
sg23
F0.0153285455099355
sg24
F0.01955658234169037
sg25
F0.014523352879211415
ssS'SAVAGE FRANK'
p282
(dp283
g3
F0.0
sg4
F0.0
sg5
F0.0
sg6
I00
sg7
F0.0
sg8
F0.0
sg9
F0.9653907988446478
sg10
F0.9999999999999999
sg11
F0.0
sg12
F0.0
sg13
F0.0
sg14
F0.0
sg15
F0.0
sg16
F1.0
sg17
F0.0
sg18
F0.0
sg19
F0.0
sg20
F0.0
sg21
F0.0
sg22
F0.0
sg23
F3.621096461635453e-05
sg24
F0.0
sg25
F0.0
ssS'IZZO LAWRENCE L'
p284
(dp285
g3
F496.0
sg4
F0.0
sg5
F0.12280394993945701
sg6
I00
sg7
F0.06073345805232368
sg8
F28.0
sg9
F1.0
sg10
F0.9999999999999999
sg11
F437.0
sg12
F0.0
sg13
F19.0
sg14
F0.0
sg15
F0.056451612903225805
sg16
F0.0
sg17
F0.0
sg18
F0.1185088730667461
sg19
F5.0
sg20
F0.2631578947368421
sg21
F0.24758730264968232
sg22
F0.07673645544059075
sg23
F0.01911548818951386
sg24
F0.0630356292744369
sg25
F0.149977764862382
ssS'TILNEY ELIZABETH A'
p286
(dp287
g3
F460.0
sg4
F0.0
sg5
F0.0
sg6
I00
sg7
F0.05344544308604483
sg8
F10.0
sg9
F0.8359199015176981
sg10
F0.9999999999999999
sg11
F379.0
sg12
F0.0
sg13
F19.0
sg14
F1.2129151201998885
sg15
F0.021739130434782608
sg16
F0.0
sg17
F0.04285714285714285
sg18
F0.023784160961829465
sg19
F11.0
sg20
F0.5789473684210527
sg21
F0.039073564321276406
sg22
F0.22257477561466374
sg23
F0.0038566415442719162
sg24
F0.017213327998196363
sg25
F0.014677507490784749
ssS'MARTIN AMANDA K'
p288
(dp289
g3
F1522.0
sg4
F0.027277719949167587
sg5
F0.03589304214405302
sg6
I00
sg7
F1.0
sg8
F8.0
sg9
F1.0
sg10
F0.9999999999999999
sg11
F477.0
sg12
F0.0
sg13
F230.0
sg14
F0.0
sg15
F0.005256241787122208
sg16
F0.0
sg17
F0.0
sg18
F0.04215643884743983
sg19
F0.0
sg20
F0.0
sg21
F0.0
sg22
F0.3144967235331489
sg23
F0.08118030904136704
sg24
F0.06027375261671699
sg25
F0.2720586609939314
ssS'BUY RICHARD B'
p290
(dp291
g3
F3523.0
sg4
F0.2074115701212698
sg5
F0.0
sg6
I00
sg7
F0.14962042074584964
sg8
F156.0
sg9
F0.80171647757981
sg10
F0.9999999999999999
sg11
F2333.0
sg12
F0.0
sg13
F1053.0
sg14
F2.722767784211577
sg15
F0.04428044280442804
sg16
F0.0
sg17
F0.12857142857142856
sg18
F0.070137742399839
sg19
F71.0
sg20
F0.06742640075973409
sg21
F0.061080862399667674
sg22
F0.29745207683544234
sg23
F0.02274726447164683
sg24
F0.07403006208385232
sg25
F0.038666262408987725
ssS'GRAMM WENDY L'
p292
(dp293
g3
F0.0
sg4
F0.0
sg5
F0.0
sg6
I00
sg7
F0.0
sg8
F0.0
sg9
F1.0
sg10
F0.9999999999999999
sg11
F0.0
sg12
F0.0
sg13
F0.0
sg14
F0.0
sg15
F0.0
sg16
F0.9540764911943951
sg17
F0.0
sg18
F0.0
sg19
F0.0
sg20
F0.0
sg21
F0.0
sg22
F0.0
sg23
F0.0011519142376037773
sg24
F0.0
sg25
F0.0
ssS'CAUSEY RICHARD A'
p294
(dp295
g3
F1892.0
sg4
F0.0
sg5
F0.13408636886209746
sg6
I01
sg7
F0.06802147301860252
sg8
F58.0
sg9
F0.9329411771420157
sg10
F0.9999999999999999
sg11
F1585.0
sg12
F0.0
sg13
F49.0
sg14
F2.4085416521150607
sg15
F0.0306553911205074
sg16
F0.0
sg17
F0.14285714285714285
sg18
F0.05094805591634369
sg19
F12.0
sg20
F0.24489795918367346
sg21
F0.1694970103024761
sg22
F0.3736207073424893
sg23
F0.01804520795054119
sg24
F0.0
sg25
F0.029720372029036667
ssS'TAYLOR MITCHELL S'
p296
(dp297
g3
F533.0
sg4
F0.07262425523490833
sg5
F0.0
sg6
I00
sg7
F0.0
sg8
F0.0
sg9
F1.0
sg10
F0.9999999999999999
sg11
F300.0
sg12
F0.0
sg13
F29.0
sg14
F2.2623240100447184
sg15
F0.0
sg16
F0.0
sg17
F0.0857142857142857
sg18
F0.07625823766763311
sg19
F0.0
sg20
F0.0
sg21
F0.038193313043882356
sg22
F0.23866104900932097
sg23
F0.01055103499482661
sg24
F0.09261716650192335
sg25
F0.0
ssS'DONAHUE JR JEFFREY M'
p298
(dp299
g3
F865.0
sg4
F0.0
sg5
F0.4208198004047858
sg6
I00
sg7
F0.0
sg8
F188.0
sg9
F0.9143929920961903
sg10
F0.9999999999999999
sg11
F772.0
sg12
F0.0
sg13
F22.0
sg14
F2.8714900520816506
sg15
F0.21734104046242775
sg16
F0.0
sg17
F0.11428571428571428
sg18
F0.022011530912249826
sg19
F11.0
sg20
F0.5
sg21
F0.021343620860857837
sg22
F0.25070775643459936
sg23
F0.008456563832644972
sg24
F0.022298574512268174
sg25
F8.600611077760817e-05
ssS'GLISAN JR BEN F'
p300
(dp301
g3
F873.0
sg4
F0.0
sg5
F0.550692201098954
sg6
I01
sg7
F0.01380311165200059
sg8
F52.0
sg9
F1.0
sg10
F0.9999999999999999
sg11
F874.0
sg12
F0.0
sg13
F16.0
sg14
F2.1820165469588146
sg15
F0.05956471935853379
sg16
F0.0
sg17
F0.0857142857142857
sg18
F0.015853080094883988
sg19
F6.0
sg20
F0.375
sg21
F0.026678374446726775
sg22
F0.24744478779905296
sg23
F0.01228550157492107
sg24
F0.011200759837784508
sg25
F0.01933525481216738
ss.