(lp0
S'poi'
p1
aS'bonus_to_salary'
p2
aS'to_poi_ratio'
p3
aS'from_poi_ratio'
p4
aS'salary'
p5
aS'bonus'
p6
aS'long_term_incentive'
p7
aS'deferred_income'
p8
aS'deferral_payments'
p9
aS'loan_advances'
p10
aS'other'
p11
aS'expenses'
p12
aS'director_fees'
p13
aS'total_payments'
p14
aS'exercised_stock_options'
p15
aS'restricted_stock'
p16
aS'restricted_stock_deferred'
p17
aS'total_stock_value'
p18
aS'to_messages'
p19
aS'from_messages'
p20
aS'from_poi_to_this_person'
p21
aS'from_this_person_to_poi'
p22
aS'shared_receipt_with_poi'
p23
a.